target datalayout = "e-m:e-p270:32:32-p271:32:32-p272:64:64-i64:64-i128:128-f80:128-n8:16:32:64-S128"
target triple = "x86_64-unknown-linux-gnu"

%"class.proxygen::GenericFilter" = type { %"class.proxygen::HTTPCodec", %"class.proxygen::HTTPCodec::Callback", i8, i8, ptr, ptr, ptr, ptr, ptr, ptr }
%"class.proxygen::HTTPCodec" = type { ptr }
%"class.proxygen::HTTPCodec::Callback" = type { ptr }

; Function Attrs: mustprogress uwtable
define void @_ZN8proxygen26PassThroughHTTPCodecFilter19generatePushPromiseERN5folly10IOBufQueueEmRKNS_11HTTPMessageEmbPNS_14HTTPHeaderSizeE(ptr noundef nonnull align 8 dereferenceable(72) %this, ptr noundef nonnull align 8 dereferenceable(72) %buf, i64 noundef %stream, ptr noundef nonnull align 8 dereferenceable(616) %msg, i64 noundef %assocStream, i1 noundef zeroext %eom, ptr noundef %size) unnamed_addr #4 align 2 {
entry:
  %this.addr = alloca ptr, align 8
  %buf.addr = alloca ptr, align 8
  %stream.addr = alloca i64, align 8
  %msg.addr = alloca ptr, align 8
  %assocStream.addr = alloca i64, align 8
  %eom.addr = alloca i8, align 1
  %size.addr = alloca ptr, align 8
  store ptr %this, ptr %this.addr, align 8
  store ptr %buf, ptr %buf.addr, align 8
  store i64 %stream, ptr %stream.addr, align 8
  store ptr %msg, ptr %msg.addr, align 8
  store i64 %assocStream, ptr %assocStream.addr, align 8
  %frombool = zext i1 %eom to i8
  store i8 %frombool, ptr %eom.addr, align 1
  store ptr %size, ptr %size.addr, align 8
  %this1 = load ptr, ptr %this.addr, align 8
  %call_ = getelementptr inbounds %"class.proxygen::GenericFilter", ptr %this1, i32 0, i32 4
  %0 = load ptr, ptr %call_, align 8
  %1 = load ptr, ptr %buf.addr, align 8
  %2 = load i64, ptr %stream.addr, align 8
  %3 = load ptr, ptr %msg.addr, align 8
  %4 = load i64, ptr %assocStream.addr, align 8
  %5 = load i8, ptr %eom.addr, align 1
  %tobool = trunc i8 %5 to i1
  %6 = load ptr, ptr %size.addr, align 8
  %vtable = load ptr, ptr %0, align 8
  %vfn = getelementptr inbounds ptr, ptr %vtable, i64 24
  %7 = load ptr, ptr %vfn, align 8
  call void %7(ptr noundef nonnull align 8 dereferenceable(8) %0, ptr noundef nonnull align 8 dereferenceable(72) %1, i64 noundef %2, ptr noundef nonnull align 8 dereferenceable(616) %3, i64 noundef %4, i1 noundef zeroext %tobool, ptr noundef %6)
  ret void
}