; Function Attrs: mustprogress uwtable
define void @_ZN8proxygen26PassThroughHTTPCodecFilter19generatePushPromiseERN5folly10IOBufQueueEmRKNS_11HTTPMessageEmbPNS_14HTTPHeaderSizeE(ptr nocapture noundef nonnull readonly align 8 dereferenceable(72) %this, ptr noundef nonnull align 8 dereferenceable(72) %buf, i64 noundef %stream, ptr noundef nonnull align 8 dereferenceable(616) %msg, i64 noundef %assocStream, i1 noundef zeroext %eom, ptr noundef %size) unnamed_addr #3 align 2 {
entry:
  %call_ = getelementptr inbounds i8, ptr %this, i64 24
  %0 = load ptr, ptr %call_, align 8
  %vtable = load ptr, ptr %0, align 8
  %vfn = getelementptr inbounds i8, ptr %vtable, i64 192
  %1 = load ptr, ptr %vfn, align 8
  tail call void %1(ptr noundef nonnull align 8 dereferenceable(8) %0, ptr noundef nonnull align 8 dereferenceable(72) %buf, i64 noundef %stream, ptr noundef nonnull align 8 dereferenceable(616) %msg, i64 noundef %assocStream, i1 noundef zeroext %eom, ptr noundef %size)
  ret void
}